; ModuleID = '55/1396.cpp'
source_filename = "55/1396.cpp"
target datalayout = "e-m:e-p270:32:32-p271:32:32-p272:64:64-i64:64-f80:128-n8:16:32:64-S128"
target triple = "x86_64-pc-linux-gnu"

%"class.std::ios_base::Init" = type { i8 }
%"class.std::basic_istream" = type { i32 (...)**, i64, %"class.std::basic_ios" }
%"class.std::basic_ios" = type { %"class.std::ios_base", %"class.std::basic_ostream"*, i8, i8, %"class.std::basic_streambuf"*, %"class.std::ctype"*, %"class.std::num_put"*, %"class.std::num_get"* }
%"class.std::ios_base" = type { i32 (...)**, i64, i64, i32, i32, i32, %"struct.std::ios_base::_Callback_list"*, %"struct.std::ios_base::_Words", [8 x %"struct.std::ios_base::_Words"], i32, %"struct.std::ios_base::_Words"*, %"class.std::locale" }
%"struct.std::ios_base::_Callback_list" = type { %"struct.std::ios_base::_Callback_list"*, void (i32, %"class.std::ios_base"*, i32)*, i32, i32 }
%"struct.std::ios_base::_Words" = type { i8*, i64 }
%"class.std::locale" = type { %"class.std::locale::_Impl"* }
%"class.std::locale::_Impl" = type { i32, %"class.std::locale::facet"**, i64, %"class.std::locale::facet"**, i8** }
%"class.std::locale::facet" = type <{ i32 (...)**, i32, [4 x i8] }>
%"class.std::basic_ostream" = type { i32 (...)**, %"class.std::basic_ios" }
%"class.std::basic_streambuf" = type { i32 (...)**, i8*, i8*, i8*, i8*, i8*, i8*, %"class.std::locale" }
%"class.std::ctype" = type <{ %"class.std::locale::facet.base", [4 x i8], %struct.__locale_struct*, i8, [7 x i8], i32*, i32*, i16*, i8, [256 x i8], [256 x i8], i8, [6 x i8] }>
%"class.std::locale::facet.base" = type <{ i32 (...)**, i32 }>
%struct.__locale_struct = type { [13 x %struct.__locale_data*], i16*, i32*, i32*, [13 x i8*] }
%struct.__locale_data = type opaque
%"class.std::num_put" = type { %"class.std::locale::facet.base", [4 x i8] }
%"class.std::num_get" = type { %"class.std::locale::facet.base", [4 x i8] }

@_ZStL8__ioinit = internal global %"class.std::ios_base::Init" zeroinitializer, align 1
@__dso_handle = external hidden global i8
@_ZSt3cin = external dso_local global %"class.std::basic_istream", align 8
@_ZSt4cout = external dso_local global %"class.std::basic_ostream", align 8
@.str = private unnamed_addr constant [2 x i8] c"0\00", align 1
@llvm.global_ctors = appending global [1 x { i32, void ()*, i8* }] [{ i32, void ()*, i8* } { i32 65535, void ()* @_GLOBAL__sub_I_1396.cpp, i8* null }]

; Function Attrs: noinline uwtable
define internal void @__cxx_global_var_init() #0 section ".text.startup" {
  call void @_ZNSt8ios_base4InitC1Ev(%"class.std::ios_base::Init"* @_ZStL8__ioinit)
  %1 = call i32 @__cxa_atexit(void (i8*)* bitcast (void (%"class.std::ios_base::Init"*)* @_ZNSt8ios_base4InitD1Ev to void (i8*)*), i8* getelementptr inbounds (%"class.std::ios_base::Init", %"class.std::ios_base::Init"* @_ZStL8__ioinit, i32 0, i32 0), i8* @__dso_handle) #3
  ret void
}

declare dso_local void @_ZNSt8ios_base4InitC1Ev(%"class.std::ios_base::Init"*) unnamed_addr #1

; Function Attrs: nounwind
declare dso_local void @_ZNSt8ios_base4InitD1Ev(%"class.std::ios_base::Init"*) unnamed_addr #2

; Function Attrs: nounwind
declare dso_local i32 @__cxa_atexit(void (i8*)*, i8*, i8*) #3

; Function Attrs: noinline nounwind uwtable
define dso_local i32 @_Z6changec(i8 signext %0) #4 {
  %2 = alloca i8, align 1
  %3 = alloca i32, align 4
  store i8 %0, i8* %2, align 1
  %4 = load i8, i8* %2, align 1
  %5 = sext i8 %4 to i32
  %6 = icmp sle i32 %5, 57
  br i1 %6, label %7, label %15

7:                                                ; preds = %1
  %8 = load i8, i8* %2, align 1
  %9 = sext i8 %8 to i32
  %10 = icmp sge i32 %9, 48
  br i1 %10, label %11, label %15

11:                                               ; preds = %7
  %12 = load i8, i8* %2, align 1
  %13 = sext i8 %12 to i32
  %14 = sub nsw i32 %13, 48
  store i32 %14, i32* %3, align 4
  br label %34

15:                                               ; preds = %7, %1
  %16 = load i8, i8* %2, align 1
  %17 = sext i8 %16 to i32
  %18 = icmp sge i32 %17, 97
  br i1 %18, label %19, label %28

19:                                               ; preds = %15
  %20 = load i8, i8* %2, align 1
  %21 = sext i8 %20 to i32
  %22 = icmp sle i32 %21, 122
  br i1 %22, label %23, label %28

23:                                               ; preds = %19
  %24 = load i8, i8* %2, align 1
  %25 = sext i8 %24 to i32
  %26 = sub nsw i32 %25, 97
  %27 = add nsw i32 %26, 10
  store i32 %27, i32* %3, align 4
  br label %33

28:                                               ; preds = %19, %15
  %29 = load i8, i8* %2, align 1
  %30 = sext i8 %29 to i32
  %31 = sub nsw i32 %30, 65
  %32 = add nsw i32 %31, 10
  store i32 %32, i32* %3, align 4
  br label %33

33:                                               ; preds = %28, %23
  br label %34

34:                                               ; preds = %33, %11
  %35 = load i32, i32* %3, align 4
  ret i32 %35
}

; Function Attrs: noinline norecurse uwtable
define dso_local i32 @main() #5 {
  %1 = alloca i32, align 4
  %2 = alloca i32, align 4
  %3 = alloca i32, align 4
  %4 = alloca i32, align 4
  %5 = alloca i32, align 4
  %6 = alloca i32, align 4
  %7 = alloca i64, align 8
  %8 = alloca [100 x i8], align 16
  %9 = alloca i8, align 1
  %10 = alloca i8, align 1
  store i32 0, i32* %1, align 4
  store i32 0, i32* %2, align 4
  store i64 0, i64* %7, align 8
  %11 = call dereferenceable(280) %"class.std::basic_istream"* @_ZNSirsERi(%"class.std::basic_istream"* @_ZSt3cin, i32* dereferenceable(4) %4)
  %12 = call i32 @_ZNSi3getEv(%"class.std::basic_istream"* @_ZSt3cin)
  br label %13

13:                                               ; preds = %18, %0
  %14 = call i32 @_ZNSi3getEv(%"class.std::basic_istream"* @_ZSt3cin)
  %15 = trunc i32 %14 to i8
  store i8 %15, i8* %9, align 1
  %16 = sext i8 %15 to i32
  %17 = icmp ne i32 %16, 32
  br i1 %17, label %18, label %29

18:                                               ; preds = %13
  %19 = load i8, i8* %9, align 1
  %20 = call i32 @_Z6changec(i8 signext %19)
  store i32 %20, i32* %6, align 4
  %21 = load i64, i64* %7, align 8
  %22 = load i32, i32* %4, align 4
  %23 = sext i32 %22 to i64
  %24 = mul nsw i64 %21, %23
  store i64 %24, i64* %7, align 8
  %25 = load i64, i64* %7, align 8
  %26 = load i32, i32* %6, align 4
  %27 = sext i32 %26 to i64
  %28 = add nsw i64 %25, %27
  store i64 %28, i64* %7, align 8
  br label %13

29:                                               ; preds = %13
  %30 = call dereferenceable(280) %"class.std::basic_istream"* @_ZNSirsERi(%"class.std::basic_istream"* @_ZSt3cin, i32* dereferenceable(4) %5)
  br label %31

31:                                               ; preds = %51, %29
  %32 = load i64, i64* %7, align 8
  %33 = icmp sgt i64 %32, 0
  br i1 %33, label %34, label %62

34:                                               ; preds = %31
  %35 = load i64, i64* %7, align 8
  %36 = load i32, i32* %5, align 4
  %37 = sext i32 %36 to i64
  %38 = srem i64 %35, %37
  %39 = trunc i64 %38 to i32
  store i32 %39, i32* %6, align 4
  %40 = load i32, i32* %6, align 4
  %41 = icmp sgt i32 %40, 9
  br i1 %41, label %42, label %47

42:                                               ; preds = %34
  %43 = load i32, i32* %6, align 4
  %44 = sub nsw i32 %43, 10
  %45 = add nsw i32 %44, 65
  %46 = trunc i32 %45 to i8
  store i8 %46, i8* %10, align 1
  br label %51

47:                                               ; preds = %34
  %48 = load i32, i32* %6, align 4
  %49 = add nsw i32 %48, 48
  %50 = trunc i32 %49 to i8
  store i8 %50, i8* %10, align 1
  br label %51

51:                                               ; preds = %47, %42
  %52 = load i8, i8* %10, align 1
  %53 = load i32, i32* %2, align 4
  %54 = sext i32 %53 to i64
  %55 = getelementptr inbounds [100 x i8], [100 x i8]* %8, i64 0, i64 %54
  store i8 %52, i8* %55, align 1
  %56 = load i32, i32* %2, align 4
  %57 = add nsw i32 %56, 1
  store i32 %57, i32* %2, align 4
  %58 = load i64, i64* %7, align 8
  %59 = load i32, i32* %5, align 4
  %60 = sext i32 %59 to i64
  %61 = sdiv i64 %58, %60
  store i64 %61, i64* %7, align 8
  br label %31

62:                                               ; preds = %31
  %63 = load i32, i32* %2, align 4
  %64 = icmp eq i32 %63, 0
  br i1 %64, label %65, label %68

65:                                               ; preds = %62
  %66 = call dereferenceable(272) %"class.std::basic_ostream"* @_ZStlsISt11char_traitsIcEERSt13basic_ostreamIcT_ES5_PKc(%"class.std::basic_ostream"* dereferenceable(272) @_ZSt4cout, i8* getelementptr inbounds ([2 x i8], [2 x i8]* @.str, i64 0, i64 0))
  %67 = call dereferenceable(272) %"class.std::basic_ostream"* @_ZNSolsEPFRSoS_E(%"class.std::basic_ostream"* %66, %"class.std::basic_ostream"* (%"class.std::basic_ostream"*)* @_ZSt4endlIcSt11char_traitsIcEERSt13basic_ostreamIT_T0_ES6_)
  br label %84

68:                                               ; preds = %62
  %69 = load i32, i32* %2, align 4
  %70 = sub nsw i32 %69, 1
  store i32 %70, i32* %3, align 4
  br label %71

71:                                               ; preds = %80, %68
  %72 = load i32, i32* %3, align 4
  %73 = icmp sge i32 %72, 0
  br i1 %73, label %74, label %83

74:                                               ; preds = %71
  %75 = load i32, i32* %3, align 4
  %76 = sext i32 %75 to i64
  %77 = getelementptr inbounds [100 x i8], [100 x i8]* %8, i64 0, i64 %76
  %78 = load i8, i8* %77, align 1
  %79 = call dereferenceable(272) %"class.std::basic_ostream"* @_ZStlsISt11char_traitsIcEERSt13basic_ostreamIcT_ES5_c(%"class.std::basic_ostream"* dereferenceable(272) @_ZSt4cout, i8 signext %78)
  br label %80

80:                                               ; preds = %74
  %81 = load i32, i32* %3, align 4
  %82 = add nsw i32 %81, -1
  store i32 %82, i32* %3, align 4
  br label %71

83:                                               ; preds = %71
  br label %84

84:                                               ; preds = %83, %65
  ret i32 0
}

declare dso_local dereferenceable(280) %"class.std::basic_istream"* @_ZNSirsERi(%"class.std::basic_istream"*, i32* dereferenceable(4)) #1

declare dso_local i32 @_ZNSi3getEv(%"class.std::basic_istream"*) #1

declare dso_local dereferenceable(272) %"class.std::basic_ostream"* @_ZStlsISt11char_traitsIcEERSt13basic_ostreamIcT_ES5_PKc(%"class.std::basic_ostream"* dereferenceable(272), i8*) #1

declare dso_local dereferenceable(272) %"class.std::basic_ostream"* @_ZNSolsEPFRSoS_E(%"class.std::basic_ostream"*, %"class.std::basic_ostream"* (%"class.std::basic_ostream"*)*) #1

declare dso_local dereferenceable(272) %"class.std::basic_ostream"* @_ZSt4endlIcSt11char_traitsIcEERSt13basic_ostreamIT_T0_ES6_(%"class.std::basic_ostream"* dereferenceable(272)) #1

declare dso_local dereferenceable(272) %"class.std::basic_ostream"* @_ZStlsISt11char_traitsIcEERSt13basic_ostreamIcT_ES5_c(%"class.std::basic_ostream"* dereferenceable(272), i8 signext) #1

; Function Attrs: noinline uwtable
define internal void @_GLOBAL__sub_I_1396.cpp() #0 section ".text.startup" {
  call void @__cxx_global_var_init()
  ret void
}


!llvm.module.flags = !{!0}
!llvm.ident = !{!1}

!0 = !{i32 1, !"wchar_size", i32 4}
!1 = !{!"clang version 10.0.0-4ubuntu1 "}
